target datalayout = "e-m:e-p270:32:32-p271:32:32-p272:64:64-i64:64-i128:128-f80:128-n8:16:32:64-S128"
target triple = "x86_64-pc-linux-gnu"

%struct.AVRational = type { i32, i32 }

; Function Attrs: inlinehint nounwind uwtable
define internal i32 @av_cmp_q(i64 %0, i64 %1) #7 {
  %3 = alloca i32, align 4
  %4 = alloca %struct.AVRational, align 4
  %5 = alloca %struct.AVRational, align 4
  %6 = alloca i64, align 8
  %7 = alloca i32, align 4
  store i64 %0, ptr %4, align 4
  store i64 %1, ptr %5, align 4
  call void @llvm.lifetime.start.p0(i64 8, ptr %6) #9
  %8 = getelementptr inbounds nuw %struct.AVRational, ptr %4, i32 0, i32 0
  %9 = load i32, ptr %8, align 4, !tbaa !13
  %10 = sext i32 %9 to i64
  %11 = getelementptr inbounds nuw %struct.AVRational, ptr %5, i32 0, i32 1
  %12 = load i32, ptr %11, align 4, !tbaa !15
  %13 = sext i32 %12 to i64
  %14 = mul nsw i64 %10, %13
  %15 = getelementptr inbounds nuw %struct.AVRational, ptr %5, i32 0, i32 0
  %16 = load i32, ptr %15, align 4, !tbaa !13
  %17 = sext i32 %16 to i64
  %18 = getelementptr inbounds nuw %struct.AVRational, ptr %4, i32 0, i32 1
  %19 = load i32, ptr %18, align 4, !tbaa !15
  %20 = sext i32 %19 to i64
  %21 = mul nsw i64 %17, %20
  %22 = sub nsw i64 %14, %21
  store i64 %22, ptr %6, align 8, !tbaa !9
  %23 = load i64, ptr %6, align 8, !tbaa !9
  %24 = icmp ne i64 %23, 0
  br i1 %24, label %25, label %38

25:                                               ; preds = %2
  %26 = load i64, ptr %6, align 8, !tbaa !9
  %27 = getelementptr inbounds nuw %struct.AVRational, ptr %4, i32 0, i32 1
  %28 = load i32, ptr %27, align 4, !tbaa !15
  %29 = sext i32 %28 to i64
  %30 = xor i64 %26, %29
  %31 = getelementptr inbounds nuw %struct.AVRational, ptr %5, i32 0, i32 1
  %32 = load i32, ptr %31, align 4, !tbaa !15
  %33 = sext i32 %32 to i64
  %34 = xor i64 %30, %33
  %35 = ashr i64 %34, 63
  %36 = trunc i64 %35 to i32
  %37 = or i32 %36, 1
  store i32 %37, ptr %3, align 4
  store i32 1, ptr %7, align 4
  br label %64

38:                                               ; preds = %2
  %39 = getelementptr inbounds nuw %struct.AVRational, ptr %5, i32 0, i32 1
  %40 = load i32, ptr %39, align 4, !tbaa !15
  %41 = icmp ne i32 %40, 0
  br i1 %41, label %42, label %47

42:                                               ; preds = %38
  %43 = getelementptr inbounds nuw %struct.AVRational, ptr %4, i32 0, i32 1
  %44 = load i32, ptr %43, align 4, !tbaa !15
  %45 = icmp ne i32 %44, 0
  br i1 %45, label %46, label %47

46:                                               ; preds = %42
  store i32 0, ptr %3, align 4
  store i32 1, ptr %7, align 4
  br label %64

47:                                               ; preds = %42, %38
  %48 = getelementptr inbounds nuw %struct.AVRational, ptr %4, i32 0, i32 0
  %49 = load i32, ptr %48, align 4, !tbaa !13
  %50 = icmp ne i32 %49, 0
  br i1 %50, label %51, label %63

51:                                               ; preds = %47
  %52 = getelementptr inbounds nuw %struct.AVRational, ptr %5, i32 0, i32 0
  %53 = load i32, ptr %52, align 4, !tbaa !13
  %54 = icmp ne i32 %53, 0
  br i1 %54, label %55, label %63

55:                                               ; preds = %51
  %56 = getelementptr inbounds nuw %struct.AVRational, ptr %4, i32 0, i32 0
  %57 = load i32, ptr %56, align 4, !tbaa !13
  %58 = ashr i32 %57, 31
  %59 = getelementptr inbounds nuw %struct.AVRational, ptr %5, i32 0, i32 0
  %60 = load i32, ptr %59, align 4, !tbaa !13
  %61 = ashr i32 %60, 31
  %62 = sub nsw i32 %58, %61
  store i32 %62, ptr %3, align 4
  store i32 1, ptr %7, align 4
  br label %64

63:                                               ; preds = %51, %47
  store i32 -2147483648, ptr %3, align 4
  store i32 1, ptr %7, align 4
  br label %64

64:                                               ; preds = %63, %55, %46, %25
  call void @llvm.lifetime.end.p0(i64 8, ptr %6) #9
  %65 = load i32, ptr %3, align 4
  ret i32 %65
}

; Function Attrs: nounwind uwtable
define i32 @av_nearer_q(i64 %0, i64 %1, i64 %2) #0 {
  %4 = alloca %struct.AVRational, align 4
  %5 = alloca %struct.AVRational, align 4
  %6 = alloca %struct.AVRational, align 4
  %7 = alloca i64, align 8
  %8 = alloca i64, align 8
  %9 = alloca i64, align 8
  %10 = alloca i64, align 8
  store i64 %0, ptr %4, align 4
  store i64 %1, ptr %5, align 4
  store i64 %2, ptr %6, align 4
  call void @llvm.lifetime.start.p0(i64 8, ptr %7) #9
  %11 = getelementptr inbounds nuw %struct.AVRational, ptr %5, i32 0, i32 0
  %12 = load i32, ptr %11, align 4, !tbaa !13
  %13 = sext i32 %12 to i64
  %14 = getelementptr inbounds nuw %struct.AVRational, ptr %6, i32 0, i32 1
  %15 = load i32, ptr %14, align 4, !tbaa !15
  %16 = sext i32 %15 to i64
  %17 = mul nsw i64 %13, %16
  %18 = getelementptr inbounds nuw %struct.AVRational, ptr %6, i32 0, i32 0
  %19 = load i32, ptr %18, align 4, !tbaa !13
  %20 = sext i32 %19 to i64
  %21 = getelementptr inbounds nuw %struct.AVRational, ptr %5, i32 0, i32 1
  %22 = load i32, ptr %21, align 4, !tbaa !15
  %23 = sext i32 %22 to i64
  %24 = mul nsw i64 %20, %23
  %25 = add nsw i64 %17, %24
  store i64 %25, ptr %7, align 8, !tbaa !9
  call void @llvm.lifetime.start.p0(i64 8, ptr %8) #9
  %26 = getelementptr inbounds nuw %struct.AVRational, ptr %5, i32 0, i32 1
  %27 = load i32, ptr %26, align 4, !tbaa !15
  %28 = sext i32 %27 to i64
  %29 = mul nsw i64 2, %28
  %30 = getelementptr inbounds nuw %struct.AVRational, ptr %6, i32 0, i32 1
  %31 = load i32, ptr %30, align 4, !tbaa !15
  %32 = sext i32 %31 to i64
  %33 = mul nsw i64 %29, %32
  store i64 %33, ptr %8, align 8, !tbaa !9
  call void @llvm.lifetime.start.p0(i64 8, ptr %9) #9
  %34 = load i64, ptr %7, align 8, !tbaa !9
  %35 = getelementptr inbounds nuw %struct.AVRational, ptr %4, i32 0, i32 1
  %36 = load i32, ptr %35, align 4, !tbaa !15
  %37 = sext i32 %36 to i64
  %38 = load i64, ptr %8, align 8, !tbaa !9
  %39 = call i64 @av_rescale_rnd(i64 noundef %34, i64 noundef %37, i64 noundef %38, i32 noundef 3) #10
  store i64 %39, ptr %9, align 8, !tbaa !9
  call void @llvm.lifetime.start.p0(i64 8, ptr %10) #9
  %40 = load i64, ptr %7, align 8, !tbaa !9
  %41 = getelementptr inbounds nuw %struct.AVRational, ptr %4, i32 0, i32 1
  %42 = load i32, ptr %41, align 4, !tbaa !15
  %43 = sext i32 %42 to i64
  %44 = load i64, ptr %8, align 8, !tbaa !9
  %45 = call i64 @av_rescale_rnd(i64 noundef %40, i64 noundef %43, i64 noundef %44, i32 noundef 2) #10
  store i64 %45, ptr %10, align 8, !tbaa !9
  %46 = load i64, ptr %9, align 8, !tbaa !9
  %47 = getelementptr inbounds nuw %struct.AVRational, ptr %4, i32 0, i32 0
  %48 = load i32, ptr %47, align 4, !tbaa !13
  %49 = sext i32 %48 to i64
  %50 = icmp sgt i64 %46, %49
  %51 = zext i1 %50 to i32
  %52 = load i64, ptr %10, align 8, !tbaa !9
  %53 = getelementptr inbounds nuw %struct.AVRational, ptr %4, i32 0, i32 0
  %54 = load i32, ptr %53, align 4, !tbaa !13
  %55 = sext i32 %54 to i64
  %56 = icmp slt i64 %52, %55
  %57 = zext i1 %56 to i32
  %58 = sub nsw i32 %51, %57
  %59 = load i64, ptr %6, align 4
  %60 = load i64, ptr %5, align 4
  %61 = call i32 @av_cmp_q(i64 %59, i64 %60)
  %62 = mul nsw i32 %58, %61
  call void @llvm.lifetime.end.p0(i64 8, ptr %10) #9
  call void @llvm.lifetime.end.p0(i64 8, ptr %9) #9
  call void @llvm.lifetime.end.p0(i64 8, ptr %8) #9
  call void @llvm.lifetime.end.p0(i64 8, ptr %7) #9
  ret i32 %62
}