; Function Attrs: mustprogress nofree nosync nounwind willreturn memory(none) uwtable
define i32 @av_nearer_q(i64 %0, i64 %1, i64 %2) local_unnamed_addr #3 {
  %sext = shl i64 %1, 32
  %4 = ashr exact i64 %sext, 32
  %5 = ashr i64 %2, 32
  %6 = mul nsw i64 %4, %5
  %sext17 = shl i64 %2, 32
  %7 = ashr exact i64 %sext17, 32
  %8 = ashr i64 %1, 32
  %9 = mul nsw i64 %7, %8
  %.sroa.011.0.extract.trunc.i = trunc i64 %2 to i32
  %.sroa.0.0.extract.trunc.i = trunc i64 %1 to i32
  %.not.i = icmp eq i64 %9, %6
  br i1 %.not.i, label %17, label %10

10:                                               ; preds = %3
  %11 = sub nsw i64 %9, %6
  %12 = xor i64 %8, %11
  %13 = xor i64 %12, %5
  %14 = ashr i64 %13, 63
  %15 = trunc nsw i64 %14 to i32
  %16 = or i32 %15, 1
  br label %av_cmp_q.exit

17:                                               ; preds = %3
  %18 = icmp ugt i64 %1, 4294967295
  %19 = icmp ugt i64 %2, 4294967295
  %or.cond.i = and i1 %18, %19
  br i1 %or.cond.i, label %av_cmp_q.exit, label %20

20:                                               ; preds = %17
  %21 = icmp ne i32 %.sroa.011.0.extract.trunc.i, 0
  %22 = icmp ne i32 %.sroa.0.0.extract.trunc.i, 0
  %or.cond5.i = and i1 %22, %21
  br i1 %or.cond5.i, label %23, label %av_cmp_q.exit

23:                                               ; preds = %20
  %24 = ashr i32 %.sroa.011.0.extract.trunc.i, 31
  %.neg.i = lshr i32 %.sroa.0.0.extract.trunc.i, 31
  %25 = add nsw i32 %24, %.neg.i
  br label %av_cmp_q.exit

av_cmp_q.exit:                                    ; preds = %10, %17, %20, %23
  %.0.i = phi i32 [ %16, %10 ], [ %25, %23 ], [ 0, %17 ], [ -2147483648, %20 ]
  %26 = add nsw i64 %9, %6
  %27 = ashr i64 %0, 32
  %28 = shl nsw i64 %8, 1
  %29 = mul nsw i64 %28, %5
  %30 = tail call i64 @av_rescale_rnd(i64 noundef %26, i64 noundef %27, i64 noundef %29, i32 noundef 2) #8
  %sext20 = shl i64 %0, 32
  %31 = ashr exact i64 %sext20, 32
  %32 = icmp slt i64 %30, %31
  %.neg = sext i1 %32 to i32
  %33 = tail call i64 @av_rescale_rnd(i64 noundef %26, i64 noundef %27, i64 noundef %29, i32 noundef 3) #8
  %34 = icmp sgt i64 %33, %31
  %35 = zext i1 %34 to i32
  %36 = add nsw i32 %35, %.neg
  %37 = mul nsw i32 %36, %.0.i
  ret i32 %37
}